target datalayout = "e-m:e-p270:32:32-p271:32:32-p272:64:64-i64:64-i128:128-f80:128-n8:16:32:64-S128"
target triple = "x86_64-pc-linux-gnu"

%struct._zend_libxml_globals = type { %struct._zval_struct, %struct.smart_str, ptr, %struct._zend_fcall_info_cache, i8 }
%struct._zval_struct = type { %union._zend_value, %union.anon, %union.anon.2 }
%union._zend_value = type { i64 }
%union.anon = type { i32 }
%union.anon.2 = type { i32 }
%struct.smart_str = type { ptr, i64 }
%struct._zend_fcall_info_cache = type { ptr, ptr, ptr, ptr, ptr }

@libxml_globals = internal global %struct._zend_libxml_globals zeroinitializer, align 8
@_php_libxml_per_request_initialization = internal global i32 1, align 4

; Function Attrs: nounwind uwtable
define internal i32 @zm_activate_libxml(i32 noundef %0, i32 noundef %1) #0 {
  %3 = alloca i32, align 4
  %4 = alloca i32, align 4
  store i32 %0, ptr %3, align 4
  store i32 %1, ptr %4, align 4
  %5 = load i32, ptr @_php_libxml_per_request_initialization, align 4
  %6 = icmp ne i32 %5, 0
  br i1 %6, label %7, label %10

7:                                                ; preds = %2
  call void @xmlSetGenericErrorFunc(ptr noundef null, ptr noundef @php_libxml_error_handler)
  %8 = call ptr @xmlParserInputBufferCreateFilenameDefault(ptr noundef @php_libxml_input_buffer_create_filename)
  %9 = call ptr @xmlOutputBufferCreateFilenameDefault(ptr noundef @php_libxml_output_buffer_create_filename)
  br label %10

10:                                               ; preds = %7, %2
  store i8 0, ptr getelementptr inbounds (%struct._zend_libxml_globals, ptr @libxml_globals, i32 0, i32 4), align 8
  ret i32 0
}