; Function Attrs: nounwind uwtable
define internal noundef i32 @zm_activate_libxml(i32 %0, i32 %1) #0 {
  %.b = load i1, ptr @_php_libxml_per_request_initialization, align 4
  br i1 %.b, label %6, label %3

3:                                                ; preds = %2
  tail call void @xmlSetGenericErrorFunc(ptr noundef null, ptr noundef nonnull @php_libxml_error_handler) #17
  %4 = tail call ptr @xmlParserInputBufferCreateFilenameDefault(ptr noundef nonnull @php_libxml_input_buffer_create_filename) #17
  %5 = tail call ptr @xmlOutputBufferCreateFilenameDefault(ptr noundef nonnull @php_libxml_output_buffer_create_filename) #17
  br label %6

6:                                                ; preds = %3, %2
  store i8 0, ptr getelementptr inbounds (%struct._zend_libxml_globals, ptr @libxml_globals, i64 0, i32 4), align 8
  ret i32 0
}